target datalayout = "e-m:e-p270:32:32-p271:32:32-p272:64:64-i64:64-i128:128-f80:128-n8:16:32:64-S128"
target triple = "x86_64-pc-linux-gnu"

%"class.std::__cxx11::basic_string" = type { %"struct.std::__cxx11::basic_string<char>::_Alloc_hider", i64, %union.anon }
%"struct.std::__cxx11::basic_string<char>::_Alloc_hider" = type { ptr }
%union.anon = type { i64, [8 x i8] }
%class.insn_t = type { i64 }
%class.disasm_insn_t = type { i32, i32, %"class.std::vector.70", %"class.std::__cxx11::basic_string" }
%"class.std::vector.70" = type { %"struct.std::_Vector_base.71" }
%"struct.std::_Vector_base.71" = type { %"struct.std::_Vector_base<const arg_t *, std::allocator<const arg_t *>>::_Vector_impl" }
%"struct.std::_Vector_base<const arg_t *, std::allocator<const arg_t *>>::_Vector_impl" = type { %"struct.std::_Vector_base<const arg_t *, std::allocator<const arg_t *>>::_Vector_impl_data" }
%"struct.std::_Vector_base<const arg_t *, std::allocator<const arg_t *>>::_Vector_impl_data" = type { ptr, ptr, ptr }
%class.disassembler_t = type { [256 x %"class.std::vector"] }
%"class.std::vector" = type { %"struct.std::_Vector_base" }
%"struct.std::_Vector_base" = type { %"struct.std::_Vector_base<const disasm_insn_t *, std::allocator<const disasm_insn_t *>>::_Vector_impl" }
%"struct.std::_Vector_base<const disasm_insn_t *, std::allocator<const disasm_insn_t *>>::_Vector_impl" = type { %"struct.std::_Vector_base<const disasm_insn_t *, std::allocator<const disasm_insn_t *>>::_Vector_impl_data" }
%"struct.std::_Vector_base<const disasm_insn_t *, std::allocator<const disasm_insn_t *>>::_Vector_impl_data" = type { ptr, ptr, ptr }
%"class.std::reverse_iterator" = type { %"class.__gnu_cxx::__normal_iterator.78" }
%"class.__gnu_cxx::__normal_iterator.78" = type { ptr }

; Function Attrs: mustprogress nounwind uwtable
define linkonce_odr noundef nonnull align 8 dereferenceable(8) ptr @_ZNK9__gnu_cxx17__normal_iteratorIPKPK13disasm_insn_tSt6vectorIS3_SaIS3_EEE4baseEv(ptr noundef nonnull align 8 dereferenceable(8) %0) #1 comdat align 2 {
  %2 = alloca ptr, align 8
  store ptr %0, ptr %2, align 8
  %3 = load ptr, ptr %2, align 8
  %4 = getelementptr inbounds %"class.__gnu_cxx::__normal_iterator.78", ptr %3, i32 0, i32 0
  ret ptr %4
}

; Function Attrs: mustprogress nounwind uwtable
define linkonce_odr void @_ZN9__gnu_cxx17__normal_iteratorIPKPK13disasm_insn_tSt6vectorIS3_SaIS3_EEEC2ERKS5_(ptr noundef nonnull align 8 dereferenceable(8) %0, ptr noundef nonnull align 8 dereferenceable(8) %1) unnamed_addr #1 comdat align 2 {
  %3 = alloca ptr, align 8
  %4 = alloca ptr, align 8
  store ptr %0, ptr %3, align 8
  store ptr %1, ptr %4, align 8
  %5 = load ptr, ptr %3, align 8
  %6 = getelementptr inbounds %"class.__gnu_cxx::__normal_iterator.78", ptr %5, i32 0, i32 0
  %7 = load ptr, ptr %4, align 8
  %8 = load ptr, ptr %7, align 8
  store ptr %8, ptr %6, align 8
  ret void
}

; Function Attrs: mustprogress nounwind uwtable
define linkonce_odr noundef i64 @_ZN6insn_t4bitsEv(ptr noundef nonnull align 8 dereferenceable(8) %0) #1 comdat align 2 {
  %2 = alloca ptr, align 8
  store ptr %0, ptr %2, align 8
  %3 = load ptr, ptr %2, align 8
  %4 = getelementptr inbounds %class.insn_t, ptr %3, i32 0, i32 0
  %5 = load i64, ptr %4, align 8
  ret i64 %5
}

; Function Attrs: mustprogress nounwind uwtable
define linkonce_odr noundef nonnull align 8 dereferenceable(8) ptr @_ZNK9__gnu_cxx17__normal_iteratorIPKPK13disasm_insn_tSt6vectorIS3_SaIS3_EEEdeEv(ptr noundef nonnull align 8 dereferenceable(8) %0) #1 comdat align 2 {
  %2 = alloca ptr, align 8
  store ptr %0, ptr %2, align 8
  %3 = load ptr, ptr %2, align 8
  %4 = getelementptr inbounds %"class.__gnu_cxx::__normal_iterator.78", ptr %3, i32 0, i32 0
  %5 = load ptr, ptr %4, align 8
  ret ptr %5
}

; Function Attrs: mustprogress nounwind uwtable
define linkonce_odr noundef nonnull align 8 dereferenceable(8) ptr @_ZN9__gnu_cxx17__normal_iteratorIPKPK13disasm_insn_tSt6vectorIS3_SaIS3_EEEmmEv(ptr noundef nonnull align 8 dereferenceable(8) %0) #1 comdat align 2 {
  %2 = alloca ptr, align 8
  store ptr %0, ptr %2, align 8
  %3 = load ptr, ptr %2, align 8
  %4 = getelementptr inbounds %"class.__gnu_cxx::__normal_iterator.78", ptr %3, i32 0, i32 0
  %5 = load ptr, ptr %4, align 8
  %6 = getelementptr inbounds ptr, ptr %5, i32 -1
  store ptr %6, ptr %4, align 8
  ret ptr %3
}

; Function Attrs: mustprogress nounwind uwtable
define linkonce_odr noundef zeroext i1 @_ZN9__gnu_cxxeqIPKPK13disasm_insn_tSt6vectorIS3_SaIS3_EEEEbRKNS_17__normal_iteratorIT_T0_EESE_QrqXeqcldtfp_4baseEcldtfp0_4baseERSt14convertible_toIbEE(ptr noundef nonnull align 8 dereferenceable(8) %0, ptr noundef nonnull align 8 dereferenceable(8) %1) #1 comdat {
  %3 = alloca ptr, align 8
  %4 = alloca ptr, align 8
  store ptr %0, ptr %3, align 8
  store ptr %1, ptr %4, align 8
  %5 = load ptr, ptr %3, align 8
  %6 = call noundef nonnull align 8 dereferenceable(8) ptr @_ZNK9__gnu_cxx17__normal_iteratorIPKPK13disasm_insn_tSt6vectorIS3_SaIS3_EEE4baseEv(ptr noundef nonnull align 8 dereferenceable(8) %5) #2
  %7 = load ptr, ptr %6, align 8
  %8 = load ptr, ptr %4, align 8
  %9 = call noundef nonnull align 8 dereferenceable(8) ptr @_ZNK9__gnu_cxx17__normal_iteratorIPKPK13disasm_insn_tSt6vectorIS3_SaIS3_EEE4baseEv(ptr noundef nonnull align 8 dereferenceable(8) %8) #2
  %10 = load ptr, ptr %9, align 8
  %11 = icmp eq ptr %7, %10
  ret i1 %11
}

; Function Attrs: mustprogress nounwind uwtable
define linkonce_odr ptr @_ZNKSt16reverse_iteratorIN9__gnu_cxx17__normal_iteratorIPKPK13disasm_insn_tSt6vectorIS4_SaIS4_EEEEE4baseEv(ptr noundef nonnull align 8 dereferenceable(8) %0) #1 comdat align 2 {
  %2 = alloca %"class.__gnu_cxx::__normal_iterator.78", align 8
  %3 = alloca ptr, align 8
  store ptr %0, ptr %3, align 8
  %4 = load ptr, ptr %3, align 8
  %5 = getelementptr inbounds %"class.std::reverse_iterator", ptr %4, i32 0, i32 0
  call void @llvm.memcpy.p0.p0.i64(ptr align 8 %2, ptr align 8 %5, i64 8, i1 false)
  %6 = getelementptr inbounds %"class.__gnu_cxx::__normal_iterator.78", ptr %2, i32 0, i32 0
  %7 = load ptr, ptr %6, align 8
  ret ptr %7
}

; Function Attrs: mustprogress nounwind uwtable
define linkonce_odr ptr @_ZNKSt6vectorIPK13disasm_insn_tSaIS2_EE5beginEv(ptr noundef nonnull align 8 dereferenceable(24) %0) #1 comdat align 2 {
  %2 = alloca %"class.__gnu_cxx::__normal_iterator.78", align 8
  %3 = alloca ptr, align 8
  store ptr %0, ptr %3, align 8
  %4 = load ptr, ptr %3, align 8
  %5 = getelementptr inbounds %"struct.std::_Vector_base", ptr %4, i32 0, i32 0
  %6 = getelementptr inbounds %"struct.std::_Vector_base<const disasm_insn_t *, std::allocator<const disasm_insn_t *>>::_Vector_impl_data", ptr %5, i32 0, i32 0
  call void @_ZN9__gnu_cxx17__normal_iteratorIPKPK13disasm_insn_tSt6vectorIS3_SaIS3_EEEC2ERKS5_(ptr noundef nonnull align 8 dereferenceable(8) %2, ptr noundef nonnull align 8 dereferenceable(8) %6) #2
  %7 = getelementptr inbounds %"class.__gnu_cxx::__normal_iterator.78", ptr %2, i32 0, i32 0
  %8 = load ptr, ptr %7, align 8
  ret ptr %8
}

; Function Attrs: mustprogress nounwind uwtable
define linkonce_odr void @_ZNSt16reverse_iteratorIN9__gnu_cxx17__normal_iteratorIPKPK13disasm_insn_tSt6vectorIS4_SaIS4_EEEEEC2ESA_(ptr noundef nonnull align 8 dereferenceable(8) %0, ptr %1) unnamed_addr #1 comdat align 2 {
  %3 = alloca %"class.__gnu_cxx::__normal_iterator.78", align 8
  %4 = alloca ptr, align 8
  %5 = getelementptr inbounds %"class.__gnu_cxx::__normal_iterator.78", ptr %3, i32 0, i32 0
  store ptr %1, ptr %5, align 8
  store ptr %0, ptr %4, align 8
  %6 = load ptr, ptr %4, align 8
  %7 = getelementptr inbounds %"class.std::reverse_iterator", ptr %6, i32 0, i32 0
  call void @llvm.memcpy.p0.p0.i64(ptr align 8 %7, ptr align 8 %3, i64 8, i1 false)
  ret void
}

; Function Attrs: mustprogress nounwind uwtable
define linkonce_odr ptr @_ZNKSt6vectorIPK13disasm_insn_tSaIS2_EE3endEv(ptr noundef nonnull align 8 dereferenceable(24) %0) #1 comdat align 2 {
  %2 = alloca %"class.__gnu_cxx::__normal_iterator.78", align 8
  %3 = alloca ptr, align 8
  store ptr %0, ptr %3, align 8
  %4 = load ptr, ptr %3, align 8
  %5 = getelementptr inbounds %"struct.std::_Vector_base", ptr %4, i32 0, i32 0
  %6 = getelementptr inbounds %"struct.std::_Vector_base<const disasm_insn_t *, std::allocator<const disasm_insn_t *>>::_Vector_impl_data", ptr %5, i32 0, i32 1
  call void @_ZN9__gnu_cxx17__normal_iteratorIPKPK13disasm_insn_tSt6vectorIS3_SaIS3_EEEC2ERKS5_(ptr noundef nonnull align 8 dereferenceable(8) %2, ptr noundef nonnull align 8 dereferenceable(8) %6) #2
  %7 = getelementptr inbounds %"class.__gnu_cxx::__normal_iterator.78", ptr %2, i32 0, i32 0
  %8 = load ptr, ptr %7, align 8
  ret ptr %8
}

; Function Attrs: mustprogress nounwind uwtable
define linkonce_odr noundef nonnull align 8 dereferenceable(8) ptr @_ZNSt16reverse_iteratorIN9__gnu_cxx17__normal_iteratorIPKPK13disasm_insn_tSt6vectorIS4_SaIS4_EEEEEppEv(ptr noundef nonnull align 8 dereferenceable(8) %0) #1 comdat align 2 {
  %2 = alloca ptr, align 8
  store ptr %0, ptr %2, align 8
  %3 = load ptr, ptr %2, align 8
  %4 = getelementptr inbounds %"class.std::reverse_iterator", ptr %3, i32 0, i32 0
  %5 = call noundef nonnull align 8 dereferenceable(8) ptr @_ZN9__gnu_cxx17__normal_iteratorIPKPK13disasm_insn_tSt6vectorIS3_SaIS3_EEEmmEv(ptr noundef nonnull align 8 dereferenceable(8) %4) #2
  ret ptr %3
}

; Function Attrs: mustprogress uwtable
define linkonce_odr noundef zeroext i1 @_ZNK13disasm_insn_teqE6insn_t(ptr noundef nonnull align 8 dereferenceable(64) %0, i64 %1) #3 comdat align 2 {
  %3 = alloca %class.insn_t, align 8
  %4 = alloca ptr, align 8
  %5 = getelementptr inbounds %class.insn_t, ptr %3, i32 0, i32 0
  store i64 %1, ptr %5, align 8
  store ptr %0, ptr %4, align 8
  %6 = load ptr, ptr %4, align 8
  %7 = call noundef i64 @_ZN6insn_t4bitsEv(ptr noundef nonnull align 8 dereferenceable(8) %3)
  %8 = getelementptr inbounds %class.disasm_insn_t, ptr %6, i32 0, i32 1
  %9 = load i32, ptr %8, align 4
  %10 = zext i32 %9 to i64
  %11 = and i64 %7, %10
  %12 = getelementptr inbounds %class.disasm_insn_t, ptr %6, i32 0, i32 0
  %13 = load i32, ptr %12, align 8
  %14 = zext i32 %13 to i64
  %15 = icmp eq i64 %11, %14
  ret i1 %15
}

; Function Attrs: mustprogress nounwind uwtable
define linkonce_odr noundef nonnull align 8 dereferenceable(8) ptr @_ZNKSt16reverse_iteratorIN9__gnu_cxx17__normal_iteratorIPKPK13disasm_insn_tSt6vectorIS4_SaIS4_EEEEEdeEv(ptr noundef nonnull align 8 dereferenceable(8) %0) #1 comdat align 2 {
  %2 = alloca ptr, align 8
  %3 = alloca %"class.__gnu_cxx::__normal_iterator.78", align 8
  store ptr %0, ptr %2, align 8
  %4 = load ptr, ptr %2, align 8
  %5 = getelementptr inbounds %"class.std::reverse_iterator", ptr %4, i32 0, i32 0
  call void @llvm.memcpy.p0.p0.i64(ptr align 8 %3, ptr align 8 %5, i64 8, i1 false)
  %6 = call noundef nonnull align 8 dereferenceable(8) ptr @_ZN9__gnu_cxx17__normal_iteratorIPKPK13disasm_insn_tSt6vectorIS3_SaIS3_EEEmmEv(ptr noundef nonnull align 8 dereferenceable(8) %3) #2
  %7 = call noundef nonnull align 8 dereferenceable(8) ptr @_ZNK9__gnu_cxx17__normal_iteratorIPKPK13disasm_insn_tSt6vectorIS3_SaIS3_EEEdeEv(ptr noundef nonnull align 8 dereferenceable(8) %6) #2
  ret ptr %7
}

; Function Attrs: mustprogress nounwind uwtable
define linkonce_odr noundef zeroext i1 @_ZSteqIN9__gnu_cxx17__normal_iteratorIPKPK13disasm_insn_tSt6vectorIS4_SaIS4_EEEEEbRKSt16reverse_iteratorIT_ESF_QrqXeqcldtfp_4baseEcldtfp0_4baseERSt14convertible_toIbEE(ptr noundef nonnull align 8 dereferenceable(8) %0, ptr noundef nonnull align 8 dereferenceable(8) %1) #1 comdat {
  %3 = alloca ptr, align 8
  %4 = alloca ptr, align 8
  %5 = alloca %"class.__gnu_cxx::__normal_iterator.78", align 8
  %6 = alloca %"class.__gnu_cxx::__normal_iterator.78", align 8
  store ptr %0, ptr %3, align 8
  store ptr %1, ptr %4, align 8
  %7 = load ptr, ptr %3, align 8
  %8 = call ptr @_ZNKSt16reverse_iteratorIN9__gnu_cxx17__normal_iteratorIPKPK13disasm_insn_tSt6vectorIS4_SaIS4_EEEEE4baseEv(ptr noundef nonnull align 8 dereferenceable(8) %7) #2
  %9 = getelementptr inbounds %"class.__gnu_cxx::__normal_iterator.78", ptr %5, i32 0, i32 0
  store ptr %8, ptr %9, align 8
  %10 = load ptr, ptr %4, align 8
  %11 = call ptr @_ZNKSt16reverse_iteratorIN9__gnu_cxx17__normal_iteratorIPKPK13disasm_insn_tSt6vectorIS4_SaIS4_EEEEE4baseEv(ptr noundef nonnull align 8 dereferenceable(8) %10) #2
  %12 = getelementptr inbounds %"class.__gnu_cxx::__normal_iterator.78", ptr %6, i32 0, i32 0
  store ptr %11, ptr %12, align 8
  %13 = call noundef zeroext i1 @_ZN9__gnu_cxxeqIPKPK13disasm_insn_tSt6vectorIS3_SaIS3_EEEEbRKNS_17__normal_iteratorIT_T0_EESE_QrqXeqcldtfp_4baseEcldtfp0_4baseERSt14convertible_toIbEE(ptr noundef nonnull align 8 dereferenceable(8) %5, ptr noundef nonnull align 8 dereferenceable(8) %6) #2
  ret i1 %13
}

; Function Attrs: mustprogress nounwind uwtable
define linkonce_odr void @_ZNKSt6vectorIPK13disasm_insn_tSaIS2_EE4rendEv(ptr dead_on_unwind noalias writable sret(%"class.std::reverse_iterator") align 8 %0, ptr noundef nonnull align 8 dereferenceable(24) %1) #1 comdat align 2 {
  %3 = alloca ptr, align 8
  %4 = alloca ptr, align 8
  %5 = alloca %"class.__gnu_cxx::__normal_iterator.78", align 8
  store ptr %0, ptr %3, align 8
  store ptr %1, ptr %4, align 8
  %6 = load ptr, ptr %4, align 8
  %7 = call ptr @_ZNKSt6vectorIPK13disasm_insn_tSaIS2_EE5beginEv(ptr noundef nonnull align 8 dereferenceable(24) %6) #2
  %8 = getelementptr inbounds %"class.__gnu_cxx::__normal_iterator.78", ptr %5, i32 0, i32 0
  store ptr %7, ptr %8, align 8
  %9 = getelementptr inbounds %"class.__gnu_cxx::__normal_iterator.78", ptr %5, i32 0, i32 0
  %10 = load ptr, ptr %9, align 8
  call void @_ZNSt16reverse_iteratorIN9__gnu_cxx17__normal_iteratorIPKPK13disasm_insn_tSt6vectorIS4_SaIS4_EEEEEC2ESA_(ptr noundef nonnull align 8 dereferenceable(8) %0, ptr %10) #2
  ret void
}

; Function Attrs: mustprogress nounwind uwtable
define linkonce_odr void @_ZNKSt6vectorIPK13disasm_insn_tSaIS2_EE6rbeginEv(ptr dead_on_unwind noalias writable sret(%"class.std::reverse_iterator") align 8 %0, ptr noundef nonnull align 8 dereferenceable(24) %1) #1 comdat align 2 {
  %3 = alloca ptr, align 8
  %4 = alloca ptr, align 8
  %5 = alloca %"class.__gnu_cxx::__normal_iterator.78", align 8
  store ptr %0, ptr %3, align 8
  store ptr %1, ptr %4, align 8
  %6 = load ptr, ptr %4, align 8
  %7 = call ptr @_ZNKSt6vectorIPK13disasm_insn_tSaIS2_EE3endEv(ptr noundef nonnull align 8 dereferenceable(24) %6) #2
  %8 = getelementptr inbounds %"class.__gnu_cxx::__normal_iterator.78", ptr %5, i32 0, i32 0
  store ptr %7, ptr %8, align 8
  %9 = getelementptr inbounds %"class.__gnu_cxx::__normal_iterator.78", ptr %5, i32 0, i32 0
  %10 = load ptr, ptr %9, align 8
  call void @_ZNSt16reverse_iteratorIN9__gnu_cxx17__normal_iteratorIPKPK13disasm_insn_tSt6vectorIS4_SaIS4_EEEEEC2ESA_(ptr noundef nonnull align 8 dereferenceable(8) %0, ptr %10) #2
  ret void
}

; Function Attrs: mustprogress uwtable
define noundef ptr @_ZNK14disassembler_t10probe_onceE6insn_tm(ptr noundef nonnull align 8 dereferenceable(6144) %0, i64 %1, i64 noundef %2) #3 align 2 {
  %4 = alloca ptr, align 8
  %5 = alloca %class.insn_t, align 8
  %6 = alloca ptr, align 8
  %7 = alloca i64, align 8
  %8 = alloca %"class.std::reverse_iterator", align 8
  %9 = alloca %"class.std::reverse_iterator", align 8
  %10 = alloca %class.insn_t, align 8
  %11 = getelementptr inbounds %class.insn_t, ptr %5, i32 0, i32 0
  store i64 %1, ptr %11, align 8
  store ptr %0, ptr %6, align 8
  store i64 %2, ptr %7, align 8
  %12 = load ptr, ptr %6, align 8
  %13 = getelementptr inbounds %class.disassembler_t, ptr %12, i32 0, i32 0
  %14 = load i64, ptr %7, align 8
  %15 = getelementptr inbounds [256 x %"class.std::vector"], ptr %13, i64 0, i64 %14
  call void @_ZNKSt6vectorIPK13disasm_insn_tSaIS2_EE6rbeginEv(ptr dead_on_unwind writable sret(%"class.std::reverse_iterator") align 8 %8, ptr noundef nonnull align 8 dereferenceable(24) %15) #2
  br label %16

16:                                               ; preds = %32, %3
  %17 = getelementptr inbounds %class.disassembler_t, ptr %12, i32 0, i32 0
  %18 = load i64, ptr %7, align 8
  %19 = getelementptr inbounds [256 x %"class.std::vector"], ptr %17, i64 0, i64 %18
  call void @_ZNKSt6vectorIPK13disasm_insn_tSaIS2_EE4rendEv(ptr dead_on_unwind writable sret(%"class.std::reverse_iterator") align 8 %9, ptr noundef nonnull align 8 dereferenceable(24) %19) #2
  %20 = call noundef zeroext i1 @_ZSteqIN9__gnu_cxx17__normal_iteratorIPKPK13disasm_insn_tSt6vectorIS4_SaIS4_EEEEEbRKSt16reverse_iteratorIT_ESF_QrqXeqcldtfp_4baseEcldtfp0_4baseERSt14convertible_toIbEE(ptr noundef nonnull align 8 dereferenceable(8) %8, ptr noundef nonnull align 8 dereferenceable(8) %9)
  %21 = xor i1 %20, true
  br i1 %21, label %22, label %34

22:                                               ; preds = %16
  %23 = call noundef nonnull align 8 dereferenceable(8) ptr @_ZNKSt16reverse_iteratorIN9__gnu_cxx17__normal_iteratorIPKPK13disasm_insn_tSt6vectorIS4_SaIS4_EEEEEdeEv(ptr noundef nonnull align 8 dereferenceable(8) %8)
  %24 = load ptr, ptr %23, align 8
  call void @llvm.memcpy.p0.p0.i64(ptr align 8 %10, ptr align 8 %5, i64 8, i1 false)
  %25 = getelementptr inbounds %class.insn_t, ptr %10, i32 0, i32 0
  %26 = load i64, ptr %25, align 8
  %27 = call noundef zeroext i1 @_ZNK13disasm_insn_teqE6insn_t(ptr noundef nonnull align 8 dereferenceable(64) %24, i64 %26)
  br i1 %27, label %28, label %31

28:                                               ; preds = %22
  %29 = call noundef nonnull align 8 dereferenceable(8) ptr @_ZNKSt16reverse_iteratorIN9__gnu_cxx17__normal_iteratorIPKPK13disasm_insn_tSt6vectorIS4_SaIS4_EEEEEdeEv(ptr noundef nonnull align 8 dereferenceable(8) %8)
  %30 = load ptr, ptr %29, align 8
  store ptr %30, ptr %4, align 8
  br label %35

31:                                               ; preds = %22
  br label %32

32:                                               ; preds = %31
  %33 = call noundef nonnull align 8 dereferenceable(8) ptr @_ZNSt16reverse_iteratorIN9__gnu_cxx17__normal_iteratorIPKPK13disasm_insn_tSt6vectorIS4_SaIS4_EEEEEppEv(ptr noundef nonnull align 8 dereferenceable(8) %8)
  br label %16, !llvm.loop !10

34:                                               ; preds = %16
  store ptr null, ptr %4, align 8
  br label %35

35:                                               ; preds = %34, %28
  %36 = load ptr, ptr %4, align 8
  ret ptr %36
}