; Function Attrs: mustprogress nofree norecurse nosync nounwind willreturn memory(read, inaccessiblemem: none) uwtable
define noundef ptr @_ZNK14disassembler_t10probe_onceE6insn_tm(ptr nocapture noundef nonnull readonly align 8 dereferenceable(6144) %0, i64 %1, i64 noundef %2) local_unnamed_addr #2 align 2 {
  %4 = getelementptr inbounds [256 x %"class.std::vector"], ptr %0, i64 0, i64 %2
  %5 = getelementptr inbounds i8, ptr %4, i64 8
  %6 = load ptr, ptr %5, align 8, !noalias !57
  %7 = load ptr, ptr %4, align 8, !noalias !60
  br label %8

8:                                                ; preds = %10, %3
  %.sroa.04.0 = phi ptr [ %6, %3 ], [ %11, %10 ]
  %9 = icmp eq ptr %.sroa.04.0, %7
  br i1 %9, label %20, label %10

10:                                               ; preds = %8
  %11 = getelementptr inbounds i8, ptr %.sroa.04.0, i64 -8
  %12 = load ptr, ptr %11, align 8
  %13 = getelementptr inbounds i8, ptr %12, i64 4
  %14 = load i32, ptr %13, align 4
  %15 = zext i32 %14 to i64
  %16 = and i64 %15, %1
  %17 = load i32, ptr %12, align 8
  %18 = zext i32 %17 to i64
  %19 = icmp eq i64 %16, %18
  br i1 %19, label %20, label %8, !llvm.loop !10

20:                                               ; preds = %10, %8
  %.0 = phi ptr [ null, %8 ], [ %12, %10 ]
  ret ptr %.0
}